target datalayout = "e-m:e-p270:32:32-p271:32:32-p272:64:64-i64:64-i128:128-f80:128-n8:16:32:64-S128"
target triple = "x86_64-pc-linux-gnu"

%struct.pmix_pointer_array_t = type { %struct.pmix_object_t, i32, i32, i32, i32, i32, ptr, ptr }
%struct.pmix_object_t = type { %union.pthread_mutex_t, ptr, i32, %struct.pmix_tma }
%union.pthread_mutex_t = type { %struct.__pthread_mutex_s }
%struct.__pthread_mutex_s = type { i32, i32, i32, i32, i32, i16, i16, %struct.__pthread_internal_list }
%struct.__pthread_internal_list = type { ptr, ptr }
%struct.pmix_tma = type { ptr, ptr, ptr, ptr, ptr, ptr, ptr, ptr }

; Function Attrs: nounwind uwtable
define zeroext i1 @pmix_pointer_array_test_and_set_item(ptr noundef %0, i32 noundef %1, ptr noundef %2) #0 {
  %4 = alloca i1, align 1
  %5 = alloca ptr, align 8
  %6 = alloca i32, align 4
  %7 = alloca ptr, align 8
  %8 = alloca i32, align 4
  %9 = alloca i32, align 4
  %10 = alloca i32, align 4
  %11 = alloca i32, align 4
  %12 = alloca i32, align 4
  %13 = alloca i32, align 4
  %14 = alloca i32, align 4
  %15 = alloca i64, align 8
  store ptr %0, ptr %5, align 8, !tbaa !3
  store i32 %1, ptr %6, align 4, !tbaa !23
  store ptr %2, ptr %7, align 8, !tbaa !30
  %16 = load i32, ptr %6, align 4, !tbaa !23
  %17 = load ptr, ptr %5, align 8, !tbaa !3
  %18 = getelementptr inbounds nuw %struct.pmix_pointer_array_t, ptr %17, i32 0, i32 3
  %19 = load i32, ptr %18, align 8, !tbaa !16
  %20 = icmp slt i32 %16, %19
  br i1 %20, label %21, label %31

21:                                               ; preds = %3
  %22 = load ptr, ptr %5, align 8, !tbaa !3
  %23 = getelementptr inbounds nuw %struct.pmix_pointer_array_t, ptr %22, i32 0, i32 7
  %24 = load ptr, ptr %23, align 8, !tbaa !20
  %25 = load i32, ptr %6, align 4, !tbaa !23
  %26 = sext i32 %25 to i64
  %27 = getelementptr inbounds ptr, ptr %24, i64 %26
  %28 = load ptr, ptr %27, align 8, !tbaa !30
  %29 = icmp ne ptr %28, null
  br i1 %29, label %30, label %31

30:                                               ; preds = %21
  store i1 false, ptr %4, align 1
  br label %210

31:                                               ; preds = %21, %3
  %32 = load ptr, ptr %5, align 8, !tbaa !3
  %33 = getelementptr inbounds nuw %struct.pmix_pointer_array_t, ptr %32, i32 0, i32 3
  %34 = load i32, ptr %33, align 8, !tbaa !16
  %35 = load i32, ptr %6, align 4, !tbaa !23
  %36 = icmp sle i32 %34, %35
  br i1 %36, label %37, label %43

37:                                               ; preds = %31
  %38 = load ptr, ptr %5, align 8, !tbaa !3
  %39 = load i32, ptr %6, align 4, !tbaa !23
  %40 = call zeroext i1 @grow_table(ptr noundef %38, i32 noundef %39)
  br i1 %40, label %42, label %41

41:                                               ; preds = %37
  store i1 false, ptr %4, align 1
  br label %210

42:                                               ; preds = %37
  br label %43

43:                                               ; preds = %42, %31
  %44 = load ptr, ptr %7, align 8, !tbaa !30
  %45 = load ptr, ptr %5, align 8, !tbaa !3
  %46 = getelementptr inbounds nuw %struct.pmix_pointer_array_t, ptr %45, i32 0, i32 7
  %47 = load ptr, ptr %46, align 8, !tbaa !20
  %48 = load i32, ptr %6, align 4, !tbaa !23
  %49 = sext i32 %48 to i64
  %50 = getelementptr inbounds ptr, ptr %47, i64 %49
  store ptr %44, ptr %50, align 8, !tbaa !30
  %51 = load ptr, ptr %5, align 8, !tbaa !3
  %52 = getelementptr inbounds nuw %struct.pmix_pointer_array_t, ptr %51, i32 0, i32 2
  %53 = load i32, ptr %52, align 4, !tbaa !15
  %54 = add nsw i32 %53, -1
  store i32 %54, ptr %52, align 4, !tbaa !15
  br label %55

55:                                               ; preds = %43
  call void @llvm.lifetime.start.p0(i64 4, ptr %8) #7
  call void @llvm.lifetime.start.p0(i64 4, ptr %9) #7
  br label %56

56:                                               ; preds = %55
  call void @llvm.lifetime.start.p0(i64 4, ptr %10) #7
  %57 = load i32, ptr %6, align 4, !tbaa !23
  store i32 %57, ptr %10, align 4, !tbaa !23
  %58 = load i32, ptr %10, align 4, !tbaa !23
  %59 = zext i32 %58 to i64
  %60 = udiv i64 %59, 64
  %61 = trunc i64 %60 to i32
  store i32 %61, ptr %8, align 4, !tbaa !23
  %62 = load i32, ptr %10, align 4, !tbaa !23
  %63 = zext i32 %62 to i64
  %64 = urem i64 %63, 64
  %65 = trunc i64 %64 to i32
  store i32 %65, ptr %9, align 4, !tbaa !23
  call void @llvm.lifetime.end.p0(i64 4, ptr %10) #7
  br label %66

66:                                               ; preds = %56
  br label %67

67:                                               ; preds = %66
  %68 = load i32, ptr %9, align 4, !tbaa !23
  %69 = zext i32 %68 to i64
  %70 = shl i64 1, %69
  %71 = load ptr, ptr %5, align 8, !tbaa !3
  %72 = getelementptr inbounds nuw %struct.pmix_pointer_array_t, ptr %71, i32 0, i32 6
  %73 = load ptr, ptr %72, align 8, !tbaa !19
  %74 = load i32, ptr %8, align 4, !tbaa !23
  %75 = zext i32 %74 to i64
  %76 = getelementptr inbounds nuw i64, ptr %73, i64 %75
  %77 = load i64, ptr %76, align 8, !tbaa !24
  %78 = or i64 %77, %70
  store i64 %78, ptr %76, align 8, !tbaa !24
  call void @llvm.lifetime.end.p0(i64 4, ptr %9) #7
  call void @llvm.lifetime.end.p0(i64 4, ptr %8) #7
  br label %79

79:                                               ; preds = %67
  %80 = load ptr, ptr %5, align 8, !tbaa !3
  %81 = getelementptr inbounds nuw %struct.pmix_pointer_array_t, ptr %80, i32 0, i32 2
  %82 = load i32, ptr %81, align 4, !tbaa !15
  %83 = icmp sgt i32 %82, 0
  br i1 %83, label %84, label %203

84:                                               ; preds = %79
  %85 = load i32, ptr %6, align 4, !tbaa !23
  %86 = load ptr, ptr %5, align 8, !tbaa !3
  %87 = getelementptr inbounds nuw %struct.pmix_pointer_array_t, ptr %86, i32 0, i32 1
  %88 = load i32, ptr %87, align 8, !tbaa !8
  %89 = icmp eq i32 %85, %88
  br i1 %89, label %90, label %202

90:                                               ; preds = %84
  br label %91

91:                                               ; preds = %90
  call void @llvm.lifetime.start.p0(i64 4, ptr %11) #7
  call void @llvm.lifetime.start.p0(i64 4, ptr %12) #7
  %92 = load ptr, ptr %5, align 8, !tbaa !3
  %93 = getelementptr inbounds nuw %struct.pmix_pointer_array_t, ptr %92, i32 0, i32 2
  %94 = load i32, ptr %93, align 4, !tbaa !15
  %95 = icmp eq i32 0, %94
  br i1 %95, label %96, label %102

96:                                               ; preds = %91
  %97 = load ptr, ptr %5, align 8, !tbaa !3
  %98 = getelementptr inbounds nuw %struct.pmix_pointer_array_t, ptr %97, i32 0, i32 3
  %99 = load i32, ptr %98, align 8, !tbaa !16
  %100 = load ptr, ptr %5, align 8, !tbaa !3
  %101 = getelementptr inbounds nuw %struct.pmix_pointer_array_t, ptr %100, i32 0, i32 1
  store i32 %99, ptr %101, align 8, !tbaa !8
  store i32 6, ptr %13, align 4
  br label %198

102:                                              ; preds = %91
  br label %103

103:                                              ; preds = %102
  call void @llvm.lifetime.start.p0(i64 4, ptr %14) #7
  %104 = load i32, ptr %6, align 4, !tbaa !23
  store i32 %104, ptr %14, align 4, !tbaa !23
  %105 = load i32, ptr %14, align 4, !tbaa !23
  %106 = zext i32 %105 to i64
  %107 = udiv i64 %106, 64
  %108 = trunc i64 %107 to i32
  store i32 %108, ptr %11, align 4, !tbaa !23
  %109 = load i32, ptr %14, align 4, !tbaa !23
  %110 = zext i32 %109 to i64
  %111 = urem i64 %110, 64
  %112 = trunc i64 %111 to i32
  store i32 %112, ptr %12, align 4, !tbaa !23
  call void @llvm.lifetime.end.p0(i64 4, ptr %14) #7
  br label %113

113:                                              ; preds = %103
  br label %114

114:                                              ; preds = %113
  br label %115

115:                                              ; preds = %125, %114
  %116 = load ptr, ptr %5, align 8, !tbaa !3
  %117 = getelementptr inbounds nuw %struct.pmix_pointer_array_t, ptr %116, i32 0, i32 6
  %118 = load ptr, ptr %117, align 8, !tbaa !19
  %119 = load i32, ptr %11, align 4, !tbaa !23
  %120 = zext i32 %119 to i64
  %121 = getelementptr inbounds nuw i64, ptr %118, i64 %120
  %122 = load i64, ptr %121, align 8, !tbaa !24
  %123 = icmp eq i64 %122, -1
  br i1 %123, label %124, label %128

124:                                              ; preds = %115
  br label %125

125:                                              ; preds = %124
  %126 = load i32, ptr %11, align 4, !tbaa !23
  %127 = add i32 %126, 1
  store i32 %127, ptr %11, align 4, !tbaa !23
  br label %115, !llvm.loop !37

128:                                              ; preds = %115
  call void @llvm.lifetime.start.p0(i64 8, ptr %15) #7
  %129 = load ptr, ptr %5, align 8, !tbaa !3
  %130 = getelementptr inbounds nuw %struct.pmix_pointer_array_t, ptr %129, i32 0, i32 6
  %131 = load ptr, ptr %130, align 8, !tbaa !19
  %132 = load i32, ptr %11, align 4, !tbaa !23
  %133 = zext i32 %132 to i64
  %134 = getelementptr inbounds nuw i64, ptr %131, i64 %133
  %135 = load i64, ptr %134, align 8, !tbaa !24
  store i64 %135, ptr %15, align 8, !tbaa !24
  store i32 0, ptr %12, align 4, !tbaa !23
  %136 = load i64, ptr %15, align 8, !tbaa !24
  %137 = and i64 %136, 4294967295
  %138 = icmp eq i64 4294967295, %137
  br i1 %138, label %139, label %144

139:                                              ; preds = %128
  %140 = load i64, ptr %15, align 8, !tbaa !24
  %141 = lshr i64 %140, 32
  store i64 %141, ptr %15, align 8, !tbaa !24
  %142 = load i32, ptr %12, align 4, !tbaa !23
  %143 = add i32 %142, 32
  store i32 %143, ptr %12, align 4, !tbaa !23
  br label %144

144:                                              ; preds = %139, %128
  %145 = load i64, ptr %15, align 8, !tbaa !24
  %146 = and i64 %145, 65535
  %147 = icmp eq i64 65535, %146
  br i1 %147, label %148, label %153

148:                                              ; preds = %144
  %149 = load i64, ptr %15, align 8, !tbaa !24
  %150 = lshr i64 %149, 16
  store i64 %150, ptr %15, align 8, !tbaa !24
  %151 = load i32, ptr %12, align 4, !tbaa !23
  %152 = add i32 %151, 16
  store i32 %152, ptr %12, align 4, !tbaa !23
  br label %153

153:                                              ; preds = %148, %144
  %154 = load i64, ptr %15, align 8, !tbaa !24
  %155 = and i64 %154, 255
  %156 = icmp eq i64 255, %155
  br i1 %156, label %157, label %162

157:                                              ; preds = %153
  %158 = load i64, ptr %15, align 8, !tbaa !24
  %159 = lshr i64 %158, 8
  store i64 %159, ptr %15, align 8, !tbaa !24
  %160 = load i32, ptr %12, align 4, !tbaa !23
  %161 = add i32 %160, 8
  store i32 %161, ptr %12, align 4, !tbaa !23
  br label %162

162:                                              ; preds = %157, %153
  %163 = load i64, ptr %15, align 8, !tbaa !24
  %164 = and i64 %163, 15
  %165 = icmp eq i64 15, %164
  br i1 %165, label %166, label %171

166:                                              ; preds = %162
  %167 = load i64, ptr %15, align 8, !tbaa !24
  %168 = lshr i64 %167, 4
  store i64 %168, ptr %15, align 8, !tbaa !24
  %169 = load i32, ptr %12, align 4, !tbaa !23
  %170 = add i32 %169, 4
  store i32 %170, ptr %12, align 4, !tbaa !23
  br label %171

171:                                              ; preds = %166, %162
  %172 = load i64, ptr %15, align 8, !tbaa !24
  %173 = and i64 %172, 3
  %174 = icmp eq i64 3, %173
  br i1 %174, label %175, label %180

175:                                              ; preds = %171
  %176 = load i64, ptr %15, align 8, !tbaa !24
  %177 = lshr i64 %176, 2
  store i64 %177, ptr %15, align 8, !tbaa !24
  %178 = load i32, ptr %12, align 4, !tbaa !23
  %179 = add i32 %178, 2
  store i32 %179, ptr %12, align 4, !tbaa !23
  br label %180

180:                                              ; preds = %175, %171
  %181 = load i64, ptr %15, align 8, !tbaa !24
  %182 = and i64 %181, 1
  %183 = icmp eq i64 1, %182
  br i1 %183, label %184, label %187

184:                                              ; preds = %180
  %185 = load i32, ptr %12, align 4, !tbaa !23
  %186 = add i32 %185, 1
  store i32 %186, ptr %12, align 4, !tbaa !23
  br label %187

187:                                              ; preds = %184, %180
  %188 = load i32, ptr %11, align 4, !tbaa !23
  %189 = mul i32 %188, 8
  %190 = zext i32 %189 to i64
  %191 = mul i64 %190, 8
  %192 = load i32, ptr %12, align 4, !tbaa !23
  %193 = zext i32 %192 to i64
  %194 = add i64 %191, %193
  %195 = trunc i64 %194 to i32
  %196 = load ptr, ptr %5, align 8, !tbaa !3
  %197 = getelementptr inbounds nuw %struct.pmix_pointer_array_t, ptr %196, i32 0, i32 1
  store i32 %195, ptr %197, align 8, !tbaa !8
  call void @llvm.lifetime.end.p0(i64 8, ptr %15) #7
  store i32 0, ptr %13, align 4
  br label %198

198:                                              ; preds = %187, %96
  call void @llvm.lifetime.end.p0(i64 4, ptr %12) #7
  call void @llvm.lifetime.end.p0(i64 4, ptr %11) #7
  %199 = load i32, ptr %13, align 4
  switch i32 %199, label %212 [
    i32 0, label %200
    i32 6, label %201
  ]

200:                                              ; preds = %198
  br label %201

201:                                              ; preds = %200, %198
  br label %202

202:                                              ; preds = %201, %84
  br label %209

203:                                              ; preds = %79
  %204 = load ptr, ptr %5, align 8, !tbaa !3
  %205 = getelementptr inbounds nuw %struct.pmix_pointer_array_t, ptr %204, i32 0, i32 3
  %206 = load i32, ptr %205, align 8, !tbaa !16
  %207 = load ptr, ptr %5, align 8, !tbaa !3
  %208 = getelementptr inbounds nuw %struct.pmix_pointer_array_t, ptr %207, i32 0, i32 1
  store i32 %206, ptr %208, align 8, !tbaa !8
  br label %209

209:                                              ; preds = %203, %202
  store i1 true, ptr %4, align 1
  br label %210

210:                                              ; preds = %209, %41, %30
  %211 = load i1, ptr %4, align 1
  ret i1 %211

212:                                              ; preds = %198
  unreachable
}