; Function Attrs: nounwind uwtable
define noundef zeroext i1 @pmix_pointer_array_test_and_set_item(ptr noundef %0, i32 noundef %1, ptr noundef %2) local_unnamed_addr #1 {
  %4 = getelementptr inbounds nuw i8, ptr %0, i64 128
  %5 = load i32, ptr %4, align 8, !tbaa !14
  %6 = icmp slt i32 %1, %5
  br i1 %6, label %7, label %13

7:                                                ; preds = %3
  %8 = getelementptr inbounds nuw i8, ptr %0, i64 152
  %9 = load ptr, ptr %8, align 8, !tbaa !20
  %10 = sext i32 %1 to i64
  %11 = getelementptr inbounds ptr, ptr %9, i64 %10
  %12 = load ptr, ptr %11, align 8, !tbaa !22
  %.not = icmp eq ptr %12, null
  br i1 %.not, label %.thread, label %67

13:                                               ; preds = %3
  %14 = tail call fastcc zeroext i1 @grow_table(ptr noundef nonnull %0, i32 noundef %1)
  br i1 %14, label %..thread_crit_edge, label %67

..thread_crit_edge:                               ; preds = %13
  %.phi.trans.insert = getelementptr inbounds nuw i8, ptr %0, i64 152
  %.pre = load ptr, ptr %.phi.trans.insert, align 8, !tbaa !20
  %.pre67 = sext i32 %1 to i64
  br label %.thread

.thread:                                          ; preds = %..thread_crit_edge, %7
  %.pre-phi = phi i64 [ %.pre67, %..thread_crit_edge ], [ %10, %7 ]
  %15 = phi ptr [ %.pre, %..thread_crit_edge ], [ %9, %7 ]
  %16 = getelementptr inbounds ptr, ptr %15, i64 %.pre-phi
  store ptr %2, ptr %16, align 8, !tbaa !22
  %17 = getelementptr inbounds nuw i8, ptr %0, i64 124
  %18 = load i32, ptr %17, align 4, !tbaa !13
  %19 = add nsw i32 %18, -1
  store i32 %19, ptr %17, align 4, !tbaa !13
  %20 = lshr i32 %1, 6
  %21 = and i32 %1, 63
  %22 = zext nneg i32 %21 to i64
  %23 = shl nuw i64 1, %22
  %24 = getelementptr inbounds nuw i8, ptr %0, i64 144
  %25 = load ptr, ptr %24, align 8, !tbaa !18
  %26 = zext nneg i32 %20 to i64
  %27 = getelementptr inbounds nuw i64, ptr %25, i64 %26
  %28 = load i64, ptr %27, align 8, !tbaa !23
  %29 = or i64 %28, %23
  store i64 %29, ptr %27, align 8, !tbaa !23
  %30 = icmp sgt i32 %18, 1
  br i1 %30, label %31, label %64

31:                                               ; preds = %.thread
  %32 = getelementptr inbounds nuw i8, ptr %0, i64 120
  %33 = load i32, ptr %32, align 8, !tbaa !3
  %34 = icmp eq i32 %1, %33
  br i1 %34, label %.preheader, label %67

.preheader:                                       ; preds = %31, %.preheader
  %.060 = phi i32 [ %39, %.preheader ], [ %20, %31 ]
  %35 = zext i32 %.060 to i64
  %36 = getelementptr inbounds nuw i64, ptr %25, i64 %35
  %37 = load i64, ptr %36, align 8, !tbaa !23
  %38 = icmp eq i64 %37, -1
  %39 = add i32 %.060, 1
  br i1 %38, label %.preheader, label %40, !llvm.loop !31

40:                                               ; preds = %.preheader
  %41 = and i64 %37, 4294967295
  %42 = icmp eq i64 %41, 4294967295
  %43 = lshr i64 %37, 32
  %spec.select = select i1 %42, i32 32, i32 0
  %spec.select66 = select i1 %42, i64 %43, i64 %37
  %44 = and i64 %spec.select66, 65535
  %45 = icmp eq i64 %44, 65535
  %46 = lshr i64 %spec.select66, 16
  %47 = or disjoint i32 %spec.select, 16
  %.156 = select i1 %45, i32 %47, i32 %spec.select
  %.1 = select i1 %45, i64 %46, i64 %spec.select66
  %48 = and i64 %.1, 255
  %49 = icmp eq i64 %48, 255
  %50 = lshr i64 %.1, 8
  %51 = or disjoint i32 %.156, 8
  %.257 = select i1 %49, i32 %51, i32 %.156
  %.2 = select i1 %49, i64 %50, i64 %.1
  %52 = and i64 %.2, 15
  %53 = icmp eq i64 %52, 15
  %54 = lshr i64 %.2, 4
  %55 = or disjoint i32 %.257, 4
  %.358 = select i1 %53, i32 %55, i32 %.257
  %.3 = select i1 %53, i64 %54, i64 %.2
  %56 = and i64 %.3, 3
  %57 = icmp eq i64 %56, 3
  %58 = lshr i64 %.3, 2
  %59 = add nuw nsw i32 %.358, 2
  %.459 = select i1 %57, i32 %59, i32 %.358
  %.4 = select i1 %57, i64 %58, i64 %.3
  %60 = trunc i64 %.4 to i32
  %61 = and i32 %60, 1
  %62 = shl i32 %.060, 6
  %.5 = add i32 %.459, %62
  %63 = add i32 %.5, %61
  store i32 %63, ptr %32, align 8, !tbaa !3
  br label %67

64:                                               ; preds = %.thread
  %65 = load i32, ptr %4, align 8, !tbaa !14
  %66 = getelementptr inbounds nuw i8, ptr %0, i64 120
  store i32 %65, ptr %66, align 8, !tbaa !3
  br label %67

67:                                               ; preds = %64, %31, %40, %13, %7
  %.054 = phi i1 [ false, %7 ], [ false, %13 ], [ true, %40 ], [ true, %31 ], [ true, %64 ]
  ret i1 %.054
}